LIBRARY cudnn_adv64_9.dll
EXPORTS
  ??$RNN_partitionMatricesByLayer@M@@YAXQEAUcudnnContext@@QEAUcudnnRNNStruct@@QEAUcudnnTensorStruct@@PEAMPEAPEAM44_N@Z @1
  ??$RNN_partitionMatricesByLayer@N@@YAXQEAUcudnnContext@@QEAUcudnnRNNStruct@@QEAUcudnnTensorStruct@@PEANPEAPEAN44_N@Z @2
  ??$RNN_partitionMatricesByLayer@U__half@@@@YAXQEAUcudnnContext@@QEAUcudnnRNNStruct@@QEAUcudnnTensorStruct@@PEAU__half@@PEAPEAU3@44_N@Z @3
  ??$RNN_partitionMatricesByLayer@U__nv_bfloat16@@@@YAXQEAUcudnnContext@@QEAUcudnnRNNStruct@@QEAUcudnnTensorStruct@@PEAU__nv_bfloat16@@PEAPEAU3@44_N@Z @4
  ??$RNN_partitionReserveSpace@MM@@YA?AW4cudnnStatus_t@@PEAUreserveSpaceStruct@@QEAUcudnnRNNStruct@@QEAUcudnnRNNDataStruct@@HQEBQEAUcudnnTensorStruct@@PEAPEAXPEAX@Z @5
  ??$RNN_partitionReserveSpace@MU__half@@@@YA?AW4cudnnStatus_t@@PEAUreserveSpaceStruct@@QEAUcudnnRNNStruct@@QEAUcudnnRNNDataStruct@@HQEBQEAUcudnnTensorStruct@@PEAPEAXPEAX@Z @6
  ??$RNN_partitionReserveSpace@MU__nv_bfloat16@@@@YA?AW4cudnnStatus_t@@PEAUreserveSpaceStruct@@QEAUcudnnRNNStruct@@QEAUcudnnRNNDataStruct@@HQEBQEAUcudnnTensorStruct@@PEAPEAXPEAX@Z @7
  ??$RNN_partitionReserveSpace@NN@@YA?AW4cudnnStatus_t@@PEAUreserveSpaceStruct@@QEAUcudnnRNNStruct@@QEAUcudnnRNNDataStruct@@HQEBQEAUcudnnTensorStruct@@PEAPEAXPEAX@Z @8
  ??$RNN_partitionReserveSpace@U__half@@U1@@@YA?AW4cudnnStatus_t@@PEAUreserveSpaceStruct@@QEAUcudnnRNNStruct@@QEAUcudnnRNNDataStruct@@HQEBQEAUcudnnTensorStruct@@PEAPEAXPEAX@Z @9
  ??$RNN_partitionReserveSpace@U__nv_bfloat16@@U1@@@YA?AW4cudnnStatus_t@@PEAUreserveSpaceStruct@@QEAUcudnnRNNStruct@@QEAUcudnnRNNDataStruct@@HQEBQEAUcudnnTensorStruct@@PEAPEAXPEAX@Z @10
  ??$RNN_partitionWeights@M@@YA_KQEAUcudnnRNNStruct@@HPEAPEAX1PEBX@Z @11
  ??$RNN_partitionWeights@N@@YA_KQEAUcudnnRNNStruct@@HPEAPEAX1PEBX@Z @12
  ??$RNN_partitionWeights@U__half@@@@YA_KQEAUcudnnRNNStruct@@HPEAPEAX1PEBX@Z @13
  ??$RNN_partitionWeights@U__nv_bfloat16@@@@YA_KQEAUcudnnRNNStruct@@HPEAPEAX1PEBX@Z @14
  ??$RNN_partitionWorkSpace@MM@@YAXPEAUworkSpaceStruct@@QEAUcudnnContext@@QEAUcudnnRNNStruct@@QEAUcudnnRNNDataStruct@@HQEBQEAUcudnnTensorStruct@@PEAXUPerfOptions@@_N@Z @15
  ??$RNN_partitionWorkSpace@MU__half@@@@YAXPEAUworkSpaceStruct@@QEAUcudnnContext@@QEAUcudnnRNNStruct@@QEAUcudnnRNNDataStruct@@HQEBQEAUcudnnTensorStruct@@PEAXUPerfOptions@@_N@Z @16
  ??$RNN_partitionWorkSpace@MU__nv_bfloat16@@@@YAXPEAUworkSpaceStruct@@QEAUcudnnContext@@QEAUcudnnRNNStruct@@QEAUcudnnRNNDataStruct@@HQEBQEAUcudnnTensorStruct@@PEAXUPerfOptions@@_N@Z @17
  ??$RNN_partitionWorkSpace@NN@@YAXPEAUworkSpaceStruct@@QEAUcudnnContext@@QEAUcudnnRNNStruct@@QEAUcudnnRNNDataStruct@@HQEBQEAUcudnnTensorStruct@@PEAXUPerfOptions@@_N@Z @18
  ??$RNN_partitionWorkSpace@U__half@@U1@@@YAXPEAUworkSpaceStruct@@QEAUcudnnContext@@QEAUcudnnRNNStruct@@QEAUcudnnRNNDataStruct@@HQEBQEAUcudnnTensorStruct@@PEAXUPerfOptions@@_N@Z @19
  ??$RNN_partitionWorkSpace@U__nv_bfloat16@@U1@@@YAXPEAUworkSpaceStruct@@QEAUcudnnContext@@QEAUcudnnRNNStruct@@QEAUcudnnRNNDataStruct@@HQEBQEAUcudnnTensorStruct@@PEAXUPerfOptions@@_N@Z @20
  ??$RNN_persist_bp_host_GRU@MMM@@YA?AW4cudnnStatus_t@@QEAUcudnnContext@@QEAUcudnnRNNStruct@@HPEAPEAUCUstream_st@@PEIBMPEIAM343333344443HHH@Z @21
  ??$RNN_persist_bp_host_GRU@MU__half@@M@@YA?AW4cudnnStatus_t@@QEAUcudnnContext@@QEAUcudnnRNNStruct@@HPEAPEAUCUstream_st@@PEIBMPEIAM3433PEIBU__half@@33PEIAU4@4445HHH@Z @22
  ??$RNN_persist_bp_host_GRU@NNN@@YA?AW4cudnnStatus_t@@QEAUcudnnContext@@QEAUcudnnRNNStruct@@HPEAPEAUCUstream_st@@PEIBNPEIAN343333344443HHH@Z @23
  ??$RNN_persist_bp_host_GRU@U__half@@U1@M@@YA?AW4cudnnStatus_t@@QEAUcudnnContext@@QEAUcudnnRNNStruct@@HPEAPEAUCUstream_st@@PEIBU__half@@PEIAU4@343333344443HHH@Z @24
  ??$RNN_persist_bp_host_LSTM@MMM@@YA?AW4cudnnStatus_t@@QEAUcudnnContext@@QEAUcudnnRNNStruct@@HPEAPEAUCUstream_st@@PEIBMPEIAM343333344443HHHW4cudnnRNNClipMode_t@@W4cudnnNanPropagation_t@@MM@Z @25
  ??$RNN_persist_bp_host_LSTM@MU__half@@M@@YA?AW4cudnnStatus_t@@QEAUcudnnContext@@QEAUcudnnRNNStruct@@HPEAPEAUCUstream_st@@PEIBMPEIAM3433PEIBU__half@@33PEIAU4@4445HHHW4cudnnRNNClipMode_t@@W4cudnnNanPropagation_t@@MM@Z @26
  ??$RNN_persist_bp_host_LSTM@NNN@@YA?AW4cudnnStatus_t@@QEAUcudnnContext@@QEAUcudnnRNNStruct@@HPEAPEAUCUstream_st@@PEIBNPEIAN343333344443HHHW4cudnnRNNClipMode_t@@W4cudnnNanPropagation_t@@MM@Z @27
  ??$RNN_persist_bp_host_LSTM@U__half@@U1@M@@YA?AW4cudnnStatus_t@@QEAUcudnnContext@@QEAUcudnnRNNStruct@@HPEAPEAUCUstream_st@@PEIBU__half@@PEIAU4@343333344443HHHW4cudnnRNNClipMode_t@@W4cudnnNanPropagation_t@@MM@Z @28
  ??$RNN_persist_bp_host_RNN_RELU@MMM@@YA?AW4cudnnStatus_t@@QEAUcudnnContext@@QEAUcudnnRNNStruct@@HPEAPEAUCUstream_st@@PEIBMPEIAM343333344443HHH@Z @29
  ??$RNN_persist_bp_host_RNN_RELU@MU__half@@M@@YA?AW4cudnnStatus_t@@QEAUcudnnContext@@QEAUcudnnRNNStruct@@HPEAPEAUCUstream_st@@PEIBMPEIAM3433PEIBU__half@@33PEIAU4@4445HHH@Z @30
  ??$RNN_persist_bp_host_RNN_RELU@NNN@@YA?AW4cudnnStatus_t@@QEAUcudnnContext@@QEAUcudnnRNNStruct@@HPEAPEAUCUstream_st@@PEIBNPEIAN343333344443HHH@Z @31
  ??$RNN_persist_bp_host_RNN_RELU@U__half@@U1@M@@YA?AW4cudnnStatus_t@@QEAUcudnnContext@@QEAUcudnnRNNStruct@@HPEAPEAUCUstream_st@@PEIBU__half@@PEIAU4@343333344443HHH@Z @32
  ??$RNN_persist_bp_host_RNN_TANH@MMM@@YA?AW4cudnnStatus_t@@QEAUcudnnContext@@QEAUcudnnRNNStruct@@HPEAPEAUCUstream_st@@PEIBMPEIAM343333344443HHH@Z @33
  ??$RNN_persist_bp_host_RNN_TANH@MU__half@@M@@YA?AW4cudnnStatus_t@@QEAUcudnnContext@@QEAUcudnnRNNStruct@@HPEAPEAUCUstream_st@@PEIBMPEIAM3433PEIBU__half@@33PEIAU4@4445HHH@Z @34
  ??$RNN_persist_bp_host_RNN_TANH@NNN@@YA?AW4cudnnStatus_t@@QEAUcudnnContext@@QEAUcudnnRNNStruct@@HPEAPEAUCUstream_st@@PEIBNPEIAN343333344443HHH@Z @35
  ??$RNN_persist_bp_host_RNN_TANH@U__half@@U1@M@@YA?AW4cudnnStatus_t@@QEAUcudnnContext@@QEAUcudnnRNNStruct@@HPEAPEAUCUstream_st@@PEIBU__half@@PEIAU4@343333344443HHH@Z @36
  ??$RNN_persist_bp_host_RNN_fma_RELU@MMM@@YA?AW4cudnnStatus_t@@QEAUcudnnContext@@QEAUcudnnRNNStruct@@HPEAPEAUCUstream_st@@PEIBMPEIAM343333344443HHH@Z @37
  ??$RNN_persist_bp_host_RNN_fma_RELU@MU__half@@M@@YA?AW4cudnnStatus_t@@QEAUcudnnContext@@QEAUcudnnRNNStruct@@HPEAPEAUCUstream_st@@PEIBMPEIAM3433PEIBU__half@@33PEIAU4@4445HHH@Z @38
  ??$RNN_persist_bp_host_RNN_fma_RELU@NNN@@YA?AW4cudnnStatus_t@@QEAUcudnnContext@@QEAUcudnnRNNStruct@@HPEAPEAUCUstream_st@@PEIBNPEIAN343333344443HHH@Z @39
  ??$RNN_persist_bp_host_RNN_fma_RELU@U__half@@U1@M@@YA?AW4cudnnStatus_t@@QEAUcudnnContext@@QEAUcudnnRNNStruct@@HPEAPEAUCUstream_st@@PEIBU__half@@PEIAU4@343333344443HHH@Z @40
  ??$RNN_persist_bp_host_RNN_fma_TANH@MMM@@YA?AW4cudnnStatus_t@@QEAUcudnnContext@@QEAUcudnnRNNStruct@@HPEAPEAUCUstream_st@@PEIBMPEIAM343333344443HHH@Z @41
  ??$RNN_persist_bp_host_RNN_fma_TANH@MU__half@@M@@YA?AW4cudnnStatus_t@@QEAUcudnnContext@@QEAUcudnnRNNStruct@@HPEAPEAUCUstream_st@@PEIBMPEIAM3433PEIBU__half@@33PEIAU4@4445HHH@Z @42
  ??$RNN_persist_bp_host_RNN_fma_TANH@NNN@@YA?AW4cudnnStatus_t@@QEAUcudnnContext@@QEAUcudnnRNNStruct@@HPEAPEAUCUstream_st@@PEIBNPEIAN343333344443HHH@Z @43
  ??$RNN_persist_bp_host_RNN_fma_TANH@U__half@@U1@M@@YA?AW4cudnnStatus_t@@QEAUcudnnContext@@QEAUcudnnRNNStruct@@HPEAPEAUCUstream_st@@PEIBU__half@@PEIAU4@343333344443HHH@Z @44
  ??$RNN_persist_bp_host_fma_GRU@MMM@@YA?AW4cudnnStatus_t@@QEAUcudnnContext@@QEAUcudnnRNNStruct@@HPEAPEAUCUstream_st@@PEIBMPEIAM343333344443HHH@Z @45
  ??$RNN_persist_bp_host_fma_GRU@MU__half@@M@@YA?AW4cudnnStatus_t@@QEAUcudnnContext@@QEAUcudnnRNNStruct@@HPEAPEAUCUstream_st@@PEIBMPEIAM3433PEIBU__half@@33PEIAU4@4445HHH@Z @46
  ??$RNN_persist_bp_host_fma_GRU@NNN@@YA?AW4cudnnStatus_t@@QEAUcudnnContext@@QEAUcudnnRNNStruct@@HPEAPEAUCUstream_st@@PEIBNPEIAN343333344443HHH@Z @47
  ??$RNN_persist_bp_host_fma_GRU@U__half@@U1@M@@YA?AW4cudnnStatus_t@@QEAUcudnnContext@@QEAUcudnnRNNStruct@@HPEAPEAUCUstream_st@@PEIBU__half@@PEIAU4@343333344443HHH@Z @48
  ??$RNN_persist_bp_host_fma_LSTM@MMM@@YA?AW4cudnnStatus_t@@QEAUcudnnContext@@QEAUcudnnRNNStruct@@HPEAPEAUCUstream_st@@PEIBMPEIAM343333344443HHHW4cudnnRNNClipMode_t@@W4cudnnNanPropagation_t@@MM@Z @49
  ??$RNN_persist_bp_host_fma_LSTM@MU__half@@M@@YA?AW4cudnnStatus_t@@QEAUcudnnContext@@QEAUcudnnRNNStruct@@HPEAPEAUCUstream_st@@PEIBMPEIAM3433PEIBU__half@@33PEIAU4@4445HHHW4cudnnRNNClipMode_t@@W4cudnnNanPropagation_t@@MM@Z @50
  ??$RNN_persist_bp_host_fma_LSTM@NNN@@YA?AW4cudnnStatus_t@@QEAUcudnnContext@@QEAUcudnnRNNStruct@@HPEAPEAUCUstream_st@@PEIBNPEIAN343333344443HHHW4cudnnRNNClipMode_t@@W4cudnnNanPropagation_t@@MM@Z @51
  ??$RNN_persist_bp_host_fma_LSTM@U__half@@U1@M@@YA?AW4cudnnStatus_t@@QEAUcudnnContext@@QEAUcudnnRNNStruct@@HPEAPEAUCUstream_st@@PEIBU__half@@PEIAU4@343333344443HHHW4cudnnRNNClipMode_t@@W4cudnnNanPropagation_t@@MM@Z @52
  ??$RNN_persist_bp_host_rtc@MMM@@YA?AW4cudnnStatus_t@@PEAUcudnnContext@@QEAUcudnnRNNStruct@@PEAUCUstream_st@@PEIBMPEIAM343333344443HHHHHW4cudnnRNNClipMode_t@@W4cudnnNanPropagation_t@@MM@Z @53
  ??$RNN_persist_bp_host_rtc@MU__half@@M@@YA?AW4cudnnStatus_t@@PEAUcudnnContext@@QEAUcudnnRNNStruct@@PEAUCUstream_st@@PEIBMPEIAM3433PEIBU__half@@33PEIAU4@4445HHHHHW4cudnnRNNClipMode_t@@W4cudnnNanPropagation_t@@MM@Z @54
  ??$RNN_persist_bp_host_rtc@NNN@@YA?AW4cudnnStatus_t@@PEAUcudnnContext@@QEAUcudnnRNNStruct@@PEAUCUstream_st@@PEIBNPEIAN343333344443HHHHHW4cudnnRNNClipMode_t@@W4cudnnNanPropagation_t@@MM@Z @55
  ??$RNN_persist_bp_host_rtc@U__half@@U1@M@@YA?AW4cudnnStatus_t@@PEAUcudnnContext@@QEAUcudnnRNNStruct@@PEAUCUstream_st@@PEIBU__half@@PEIAU4@343333344443HHHHHW4cudnnRNNClipMode_t@@W4cudnnNanPropagation_t@@MM@Z @56
  ??$RNN_persist_bp_host_rtc_compile@MMM@@YA?AW4cudnnStatus_t@@PEAUcudnnContext@@QEAUcudnnRNNStruct@@HHHH@Z @57
  ??$RNN_persist_bp_host_rtc_compile@MU__half@@M@@YA?AW4cudnnStatus_t@@PEAUcudnnContext@@QEAUcudnnRNNStruct@@HHHH@Z @58
  ??$RNN_persist_bp_host_rtc_compile@NNN@@YA?AW4cudnnStatus_t@@PEAUcudnnContext@@QEAUcudnnRNNStruct@@HHHH@Z @59
  ??$RNN_persist_bp_host_rtc_compile@U__half@@U1@M@@YA?AW4cudnnStatus_t@@PEAUcudnnContext@@QEAUcudnnRNNStruct@@HHHH@Z @60
  ??0dualDataType_t@@QEAA@AEBW4cudnnDataType_t@@@Z @61
  ??0dualDataType_t@@QEAA@AEBW4cudnnKernelDataType_t@@@Z @62
  ??0nvrtcHelper@@QEAA@XZ @63
  ??1nvrtcHelper@@QEAA@XZ @64
  ??4dualDataType_t@@QEAAAEAU0@$$QEAU0@@Z @65
  ??4dualDataType_t@@QEAAAEAU0@AEBU0@@Z @66
  ??4nvrtcHelper@@QEAAAEAV0@AEBV0@@Z @67
  ??8dualDataType_t@@QEBA_NAEBU0@@Z @68
  ??9dualDataType_t@@QEBA_NAEBU0@@Z @69
  ??BdualDataType_t@@QEBA?AW4cudnnDataType_t@@XZ @70
  ??_FdualDataType_t@@QEAAXXZ @71
  ?RNNCopySeqLengthLauncher@@YA?AW4cudnnStatus_t@@PEAHH0PEAUCUstream_st@@@Z @72
  ?RNNInputRearrangement2Launcher@@YA?AW4cudnnStatus_t@@PEAUcudnnContext@@PEAXW4cudnnDataType_t@@PEBX2HHHHPEAHPEAUCUstream_st@@@Z @73
  ?RNNInputRearrangementLauncher@@YA?AW4cudnnStatus_t@@PEAUcudnnContext@@PEAXW4cudnnDataType_t@@_NPEBX2HHHPEBHPEAHW4RNNReshapeMode_t@@_NPEAUCUstream_st@@@Z @74
  ?RNNOutputRearrangement2Launcher@@YA?AW4cudnnStatus_t@@PEAUcudnnContext@@PEAXW4cudnnDataType_t@@PEBX2NHHHHPEAHPEAUCUstream_st@@@Z @75
  ?RNNOutputRearrangementLauncher@@YA?AW4cudnnStatus_t@@PEAUcudnnContext@@PEAXW4cudnnDataType_t@@_N12NHHHPEBHPEAHW4RNNReshapeMode_t@@PEAUCUstream_st@@@Z @76
  ?RNN_getPaddingSortWorkspace@@YA?AW4cudnnStatus_t@@QEAUcudnnContext@@QEAUcudnnRNNStruct@@QEAUcudnnRNNDataStruct@@HPEBQEAUcudnnTensorStruct@@UPerfOptions@@_NPEAXPEAPEAX77777777777PEAPEAH8@Z @77
  ?checkRNNAlgorithmDeviceSupported@@YA?AW4cudnnStatus_t@@PEAUcudnnContext@@PEAUcudnnRNNStruct@@@Z @78
  ?cublasLtCreate@cudnn@@YA?AW4cublasStatus_t@@PEAPEAUcublasLtContext@@@Z @79
  ?cublasLtDestroy@cudnn@@YA?AW4cublasStatus_t@@PEAUcublasLtContext@@@Z @80
  ?cublasLtGetVersion@cudnn@@YA_KXZ @81
  ?cublasLtMatmul@cudnn@@YA?AW4cublasStatus_t@@PEAUcublasLtContext@@PEAUcublasLtMatmulDescOpaque_t@@PEBX2PEAUcublasLtMatrixLayoutOpaque_t@@23223PEAX3PEBUcublasLtMatmulAlgo_t@@4_KPEAUCUstream_st@@@Z @82
  ?cublasLtMatmulAlgoGetHeuristic@cudnn@@YA?AW4cublasStatus_t@@PEAUcublasLtContext@@PEAUcublasLtMatmulDescOpaque_t@@PEAUcublasLtMatrixLayoutOpaque_t@@222PEAUcublasLtMatmulPreferenceOpaque_t@@HQEAUcublasLtMatmulHeuristicResult_t@@PEAH@Z @83
  ?cublasLtMatmulDescCreate@cudnn@@YA?AW4cublasStatus_t@@PEAPEAUcublasLtMatmulDescOpaque_t@@W4cublasComputeType_t@@W4cudaDataType_t@@@Z @84
  ?cublasLtMatmulDescDestroy@cudnn@@YA?AW4cublasStatus_t@@PEAUcublasLtMatmulDescOpaque_t@@@Z @85
  ?cublasLtMatmulDescGetAttribute@cudnn@@YA?AW4cublasStatus_t@@PEAUcublasLtMatmulDescOpaque_t@@W4cublasLtMatmulDescAttributes_t@@PEAX_KPEA_K@Z @86
  ?cublasLtMatmulDescInit@cudnn@@YA?AW4cublasStatus_t@@PEAUcublasLtMatmulDescOpaque_t@@W4cublasComputeType_t@@W4cudaDataType_t@@@Z @87
  ?cublasLtMatmulDescSetAttribute@cudnn@@YA?AW4cublasStatus_t@@PEAUcublasLtMatmulDescOpaque_t@@W4cublasLtMatmulDescAttributes_t@@PEBX_K@Z @88
  ?cublasLtMatmulPreferenceCreate@cudnn@@YA?AW4cublasStatus_t@@PEAPEAUcublasLtMatmulPreferenceOpaque_t@@@Z @89
  ?cublasLtMatmulPreferenceDestroy@cudnn@@YA?AW4cublasStatus_t@@PEAUcublasLtMatmulPreferenceOpaque_t@@@Z @90
  ?cublasLtMatmulPreferenceInit@cudnn@@YA?AW4cublasStatus_t@@PEAUcublasLtMatmulPreferenceOpaque_t@@@Z @91
  ?cublasLtMatmulPreferenceSetAttribute@cudnn@@YA?AW4cublasStatus_t@@PEAUcublasLtMatmulPreferenceOpaque_t@@W4cublasLtMatmulPreferenceAttributes_t@@PEBX_K@Z @92
  ?cublasLtMatrixLayoutCreate@cudnn@@YA?AW4cublasStatus_t@@PEAPEAUcublasLtMatrixLayoutOpaque_t@@W4cudaDataType_t@@_K2_J@Z @93
  ?cublasLtMatrixLayoutDestroy@cudnn@@YA?AW4cublasStatus_t@@PEAUcublasLtMatrixLayoutOpaque_t@@@Z @94
  ?cublasLtMatrixLayoutGetAttribute@cudnn@@YA?AW4cublasStatus_t@@PEAUcublasLtMatrixLayoutOpaque_t@@W4cublasLtMatrixLayoutAttribute_t@@PEAX_KPEA_K@Z @95
  ?cublasLtMatrixLayoutInit@cudnn@@YA?AW4cublasStatus_t@@PEAUcublasLtMatrixLayoutOpaque_t@@W4cudaDataType_t@@_K2_J@Z @96
  ?cublasLtMatrixLayoutSetAttribute@cudnn@@YA?AW4cublasStatus_t@@PEAUcublasLtMatrixLayoutOpaque_t@@W4cublasLtMatrixLayoutAttribute_t@@PEBX_K@Z @97
  ?cublasLtMatrixTransform@cudnn@@YA?AW4cublasStatus_t@@PEAUcublasLtContext@@PEAUcublasLtMatrixTransformDescOpaque_t@@PEBX2PEAUcublasLtMatrixLayoutOpaque_t@@223PEAX3PEAUCUstream_st@@@Z @98
  ?cublasLtMatrixTransformDescCreate@cudnn@@YA?AW4cublasStatus_t@@PEAPEAUcublasLtMatrixTransformDescOpaque_t@@W4cudaDataType_t@@@Z @99
  ?cublasLtMatrixTransformDescDestroy@cudnn@@YA?AW4cublasStatus_t@@PEAUcublasLtMatrixTransformDescOpaque_t@@@Z @100
  ?cublasLtMatrixTransformDescGetAttribute@cudnn@@YA?AW4cublasStatus_t@@PEAUcublasLtMatrixTransformDescOpaque_t@@W4cublasLtMatrixTransformDescAttributes_t@@PEAX_KPEA_K@Z @101
  ?cublasLtMatrixTransformDescInit@cudnn@@YA?AW4cublasStatus_t@@PEAUcublasLtMatrixTransformDescOpaque_t@@W4cudaDataType_t@@@Z @102
  ?cublasLtMatrixTransformDescSetAttribute@cudnn@@YA?AW4cublasStatus_t@@PEAUcublasLtMatrixTransformDescOpaque_t@@W4cublasLtMatrixTransformDescAttributes_t@@PEBX_K@Z @103
  ?getPerfViaHeuristic@@YAXQEAUcudnnContext@@PEAUcudnnRNNStruct@@QEAUcudnnRNNDataStruct@@HPEBQEAUcudnnTensorStruct@@W4cudnnForwardMode_t@@PEAUPerfOptions@@@Z @104
  ?getRNNParamSizeInternal@@YA?AW4cudnnStatus_t@@PEAUcudnnContext@@PEAUcudnnRNNStruct@@HW4cudnnDataType_t@@PEA_K@Z @105
  ?getRNNReserveSizeInternal@@YA?AW4cudnnStatus_t@@PEAUcudnnContext@@QEAUcudnnRNNStruct@@QEAUcudnnRNNDataStruct@@HPEBQEAUcudnnTensorStruct@@PEA_K@Z @106
  ?getRNNWorkSizeInternal@@YA?AW4cudnnStatus_t@@PEAUcudnnContext@@PEAUcudnnRNNStruct@@W4cudnnForwardMode_t@@QEAUcudnnRNNDataStruct@@HPEBQEAUcudnnTensorStruct@@PEA_K@Z @107
  ?isInitialized@nvrtcHelper@@QEBA_NXZ @108
  ?validateRNNInputInternal@@YA?AW4cudnnStatus_t@@PEAUcudnnContext@@QEAUcudnnRNNStruct@@HPEBQEAUcudnnTensorStruct@@@Z @109
  NvOptimusEnablementCuda @110
  cudnnAdvVersionCheck @111
  cudnnBuildRNNDynamic @112
  cudnnCTCLoss @113
  cudnnCTCLoss_v8 @114
  cudnnCreateAttnDescriptor @115
  cudnnCreateCTCLossDescriptor @116
  cudnnCreateRNNDataDescriptor @117
  cudnnCreateRNNDescriptor @118
  cudnnCreateSeqDataDescriptor @119
  cudnnDestroyAttnDescriptor @120
  cudnnDestroyCTCLossDescriptor @121
  cudnnDestroyRNNDataDescriptor @122
  cudnnDestroyRNNDescriptor @123
  cudnnDestroySeqDataDescriptor @124
  cudnnGetAttnDescriptor @125
  cudnnGetCTCLossDescriptor @126
  cudnnGetCTCLossDescriptorEx @127
  cudnnGetCTCLossDescriptor_v8 @128
  cudnnGetCTCLossDescriptor_v9 @129
  cudnnGetCTCLossWorkspaceSize @130
  cudnnGetCTCLossWorkspaceSize_v8 @131
  cudnnGetMultiHeadAttnBuffers @132
  cudnnGetMultiHeadAttnWeights @133
  cudnnGetRNNDataDescriptor @134
  cudnnGetRNNDescriptor_v8 @135
  cudnnGetRNNDropoutLocationsInternal @136
  cudnnGetRNNTempSpaceSizes @137
  cudnnGetRNNWeightParams @138
  cudnnGetRNNWeightSpaceSize @139
  cudnnGetSeqDataDescriptor @140
  cudnnMultiHeadAttnBackwardData @141
  cudnnMultiHeadAttnBackwardWeights @142
  cudnnMultiHeadAttnForward @143
  cudnnRNNBackwardData_v8 @144
  cudnnRNNBackwardWeights_v8 @145
  cudnnRNNForward @146
  cudnnRNNGetClip_v8 @147
  cudnnRNNGetClip_v9 @148
  cudnnRNNSetClip_v8 @149
  cudnnRNNSetClip_v9 @150
  cudnnSetAttnDescriptor @151
  cudnnSetCTCLossDescriptor @152
  cudnnSetCTCLossDescriptorEx @153
  cudnnSetCTCLossDescriptor_v8 @154
  cudnnSetCTCLossDescriptor_v9 @155
  cudnnSetRNNDataDescriptor @156
  cudnnSetRNNDescriptor_v8 @157
  cudnnSetSeqDataDescriptor @158
  cudnn_adv_infer_version @159
