LIBRARY cutensor.dll
EXPORTS
  ?DeserializeContextFromFile@cask6_cutensor@@YA?AW4Status@1@AEAVContext@1@VStringView@1@@Z @1
  ?InitializeAllProviders@cask6_cutensor@@YA?AW4Status@1@AEAVContext@1@@Z @2
  ?InitializeAllResources@cask6_cutensor@@YA?AW4Status@1@AEAVContext@1@@Z @3
  ?InitializeAllResources@cask6_cutensor@@YA?AW4Status@1@AEAVContext@1@V?$Span@VSerializedResourceFilenames@cask6_cutensor@@@1@@Z @4
  ?InitializeContext@cask6_cutensor@@YA?AW4Status@1@AEAVContext@1@@Z @5
  ?InitializeDynamicShaders_cutlass3x_common_cutlass3x_sm100_tensorop_c128x64x32emulated_gemm_f16_f16_cf32_cf32_128x64x32_1x1x1_nnn_align8_a74eabc5f5320f80@cask6_cutensor@@YA?AW4Status@1@AEAVContext@1@@Z @6
  ?InitializeDynamicShaders_cutlass3x_common_cutlass3x_sm100_tensorop_c128x64x32emulated_gemm_f16_f16_cf32_cf32_128x64x32_1x1x1_ntn_align8_b8581e440c927a52@cask6_cutensor@@YA?AW4Status@1@AEAVContext@1@@Z @7
  ?InitializeDynamicShaders_cutlass3x_common_cutlass3x_sm100_tensorop_c128x64x32emulated_gemm_f16_f16_cf32_cf32_128x64x32_1x1x1_tnn_align8_6d770b3386f83cfc@cask6_cutensor@@YA?AW4Status@1@AEAVContext@1@@Z @8
  ?InitializeDynamicShaders_cutlass3x_common_cutlass3x_sm100_tensorop_c128x64x32emulated_gemm_f16_f16_cf32_cf32_128x64x32_1x1x1_ttn_align8_19a03666b0c89b24@cask6_cutensor@@YA?AW4Status@1@AEAVContext@1@@Z @9
  ?InitializeDynamicShaders_cutlass3x_common_cutlass3x_sm100_tensorop_c128x64x32f16emulated_gemm_cf32_cf32_cf32_cf32_128x64x32_1x1x1_nnn_align2_43cdc25b4ac7f5e8@cask6_cutensor@@YA?AW4Status@1@AEAVContext@1@@Z @10
  ?InitializeDynamicShaders_cutlass3x_common_cutlass3x_sm100_tensorop_c128x64x32f16emulated_gemm_cf32_cf32_cf32_cf32_128x64x32_1x1x1_ntn_align2_992f12d7b3ad70a6@cask6_cutensor@@YA?AW4Status@1@AEAVContext@1@@Z @11
  ?InitializeDynamicShaders_cutlass3x_common_cutlass3x_sm100_tensorop_c128x64x32f16emulated_gemm_cf32_cf32_cf32_cf32_128x64x32_1x1x1_tnn_align2_48226cabafd97fcf@cask6_cutensor@@YA?AW4Status@1@AEAVContext@1@@Z @12
  ?InitializeDynamicShaders_cutlass3x_common_cutlass3x_sm100_tensorop_c128x64x32f16emulated_gemm_cf32_cf32_cf32_cf32_128x64x32_1x1x1_ttn_align2_3fc62c6181779a06@cask6_cutensor@@YA?AW4Status@1@AEAVContext@1@@Z @13
  ?InitializeDynamicShaders_cutlass3x_common_cutlass3x_sm100_tensorop_c256x64x32emulated_gemm_f16_f16_cf32_cf32_256x64x32_2x1x1_nnn_align8_4823e498dddfa6e7@cask6_cutensor@@YA?AW4Status@1@AEAVContext@1@@Z @14
  ?InitializeDynamicShaders_cutlass3x_common_cutlass3x_sm100_tensorop_c256x64x32emulated_gemm_f16_f16_cf32_cf32_256x64x32_2x1x1_ntn_align8_a93c5167f4377f41@cask6_cutensor@@YA?AW4Status@1@AEAVContext@1@@Z @15
  ?InitializeDynamicShaders_cutlass3x_common_cutlass3x_sm100_tensorop_c256x64x32emulated_gemm_f16_f16_cf32_cf32_256x64x32_2x1x1_tnn_align8_983f3b38d46cbc05@cask6_cutensor@@YA?AW4Status@1@AEAVContext@1@@Z @16
  ?InitializeDynamicShaders_cutlass3x_common_cutlass3x_sm100_tensorop_c256x64x32emulated_gemm_f16_f16_cf32_cf32_256x64x32_2x1x1_ttn_align8_7f7f0700c6ac538b@cask6_cutensor@@YA?AW4Status@1@AEAVContext@1@@Z @17
  ?InitializeDynamicShaders_cutlass3x_common_cutlass3x_sm100_tensorop_c256x64x32f16emulated_gemm_cf32_cf32_cf32_cf32_256x64x32_2x1x1_nnn_align2_d5fb0f1a1b6c060f@cask6_cutensor@@YA?AW4Status@1@AEAVContext@1@@Z @18
  ?InitializeDynamicShaders_cutlass3x_common_cutlass3x_sm100_tensorop_c256x64x32f16emulated_gemm_cf32_cf32_cf32_cf32_256x64x32_2x1x1_ntn_align2_d8556a7ff7b49e8e@cask6_cutensor@@YA?AW4Status@1@AEAVContext@1@@Z @19
  ?InitializeDynamicShaders_cutlass3x_common_cutlass3x_sm100_tensorop_c256x64x32f16emulated_gemm_cf32_cf32_cf32_cf32_256x64x32_2x1x1_tnn_align2_3c83b24ee02bd67c@cask6_cutensor@@YA?AW4Status@1@AEAVContext@1@@Z @20
  ?InitializeDynamicShaders_cutlass3x_common_cutlass3x_sm100_tensorop_c256x64x32f16emulated_gemm_cf32_cf32_cf32_cf32_256x64x32_2x1x1_ttn_align2_ec8ee79f23ecc0fc@cask6_cutensor@@YA?AW4Status@1@AEAVContext@1@@Z @21
  ?InitializeDynamicShaders_cutlass3x_common_cutlass3x_sm100_tensorop_s128x128x16gett_bf16_bf16_f32_bf16_bf16_nnt_9a0c5ffedd00c61d@cask6_cutensor@@YA?AW4Status@1@AEAVContext@1@@Z @22
  ?InitializeDynamicShaders_cutlass3x_common_cutlass3x_sm100_tensorop_s128x128x16gett_bf16_bf16_f32_bf16_bf16_ntt_f817622c77ffed95@cask6_cutensor@@YA?AW4Status@1@AEAVContext@1@@Z @23
  ?InitializeDynamicShaders_cutlass3x_common_cutlass3x_sm100_tensorop_s128x128x16gett_bf16_bf16_f32_bf16_bf16_tnt_5503f86e2fd40ea4@cask6_cutensor@@YA?AW4Status@1@AEAVContext@1@@Z @24
  ?InitializeDynamicShaders_cutlass3x_common_cutlass3x_sm100_tensorop_s128x128x16gett_bf16_bf16_f32_bf16_bf16_ttt_59f35a1278b30351@cask6_cutensor@@YA?AW4Status@1@AEAVContext@1@@Z @25
  ?InitializeDynamicShaders_cutlass3x_common_cutlass3x_sm100_tensorop_s128x128x16gett_f16_f16_f32_f16_f16_nnt_15bd21b3afc475c@cask6_cutensor@@YA?AW4Status@1@AEAVContext@1@@Z @26
  ?InitializeDynamicShaders_cutlass3x_common_cutlass3x_sm100_tensorop_s128x128x16gett_f16_f16_f32_f16_f16_ntt_59429185d6fd80cb@cask6_cutensor@@YA?AW4Status@1@AEAVContext@1@@Z @27
  ?InitializeDynamicShaders_cutlass3x_common_cutlass3x_sm100_tensorop_s128x128x16gett_f16_f16_f32_f16_f16_tnt_e38b36e585347500@cask6_cutensor@@YA?AW4Status@1@AEAVContext@1@@Z @28
  ?InitializeDynamicShaders_cutlass3x_common_cutlass3x_sm100_tensorop_s128x128x16gett_f16_f16_f32_f16_f16_ttt_f57724f716af9aef@cask6_cutensor@@YA?AW4Status@1@AEAVContext@1@@Z @29
  ?InitializeDynamicShaders_cutlass3x_common_cutlass3x_sm100_tensorop_s128x128x32emulated_gemm_f16_f16_f32_f32_128x128x32_1x1x1_nnn_align8_3049116481a9133e@cask6_cutensor@@YA?AW4Status@1@AEAVContext@1@@Z @30
  ?InitializeDynamicShaders_cutlass3x_common_cutlass3x_sm100_tensorop_s128x128x32emulated_gemm_f16_f16_f32_f32_128x128x32_1x1x1_ntn_align8_b32f35e70eb0732c@cask6_cutensor@@YA?AW4Status@1@AEAVContext@1@@Z @31
  ?InitializeDynamicShaders_cutlass3x_common_cutlass3x_sm100_tensorop_s128x128x32emulated_gemm_f16_f16_f32_f32_128x128x32_1x1x1_tnn_align8_81ea2eab92d8278e@cask6_cutensor@@YA?AW4Status@1@AEAVContext@1@@Z @32
  ?InitializeDynamicShaders_cutlass3x_common_cutlass3x_sm100_tensorop_s128x128x32emulated_gemm_f16_f16_f32_f32_128x128x32_1x1x1_ttn_align8_d1ab7893760670af@cask6_cutensor@@YA?AW4Status@1@AEAVContext@1@@Z @33
  ?InitializeDynamicShaders_cutlass3x_common_cutlass3x_sm100_tensorop_s128x128x32f16emulated_gemm_f32_f32_f32_f32_128x128x32_1x1x1_nnn_align4_c79a94ac2652a762@cask6_cutensor@@YA?AW4Status@1@AEAVContext@1@@Z @34
  ?InitializeDynamicShaders_cutlass3x_common_cutlass3x_sm100_tensorop_s128x128x32f16emulated_gemm_f32_f32_f32_f32_128x128x32_1x1x1_ntn_align4_19a92b6ca3bc332@cask6_cutensor@@YA?AW4Status@1@AEAVContext@1@@Z @35
  ?InitializeDynamicShaders_cutlass3x_common_cutlass3x_sm100_tensorop_s128x128x32f16emulated_gemm_f32_f32_f32_f32_128x128x32_1x1x1_tnn_align4_3de4cd30daa0bfb7@cask6_cutensor@@YA?AW4Status@1@AEAVContext@1@@Z @36
  ?InitializeDynamicShaders_cutlass3x_common_cutlass3x_sm100_tensorop_s128x128x32f16emulated_gemm_f32_f32_f32_f32_128x128x32_1x1x1_ttn_align4_4c787723379e8a20@cask6_cutensor@@YA?AW4Status@1@AEAVContext@1@@Z @37
  ?InitializeDynamicShaders_cutlass3x_common_cutlass3x_sm100_tensorop_s128x128x8gett_f32_f32_f32_f32_f32_nnt_b52395474e7ad2b@cask6_cutensor@@YA?AW4Status@1@AEAVContext@1@@Z @38
  ?InitializeDynamicShaders_cutlass3x_common_cutlass3x_sm100_tensorop_s128x128x8gett_f32_f32_f32_f32_f32_ntt_13200ea36905547a@cask6_cutensor@@YA?AW4Status@1@AEAVContext@1@@Z @39
  ?InitializeDynamicShaders_cutlass3x_common_cutlass3x_sm100_tensorop_s128x128x8gett_f32_f32_f32_f32_f32_tnt_e8d44e5fe60d74d7@cask6_cutensor@@YA?AW4Status@1@AEAVContext@1@@Z @40
  ?InitializeDynamicShaders_cutlass3x_common_cutlass3x_sm100_tensorop_s128x128x8gett_f32_f32_f32_f32_f32_ttt_a58fb9fb5c04a3f@cask6_cutensor@@YA?AW4Status@1@AEAVContext@1@@Z @41
  ?InitializeDynamicShaders_cutlass3x_common_cutlass3x_sm100_tensorop_s128x64x16gett_bf16_bf16_f32_bf16_bf16_nnt_dfeeb4f94e3e4771@cask6_cutensor@@YA?AW4Status@1@AEAVContext@1@@Z @42
  ?InitializeDynamicShaders_cutlass3x_common_cutlass3x_sm100_tensorop_s128x64x16gett_bf16_bf16_f32_bf16_bf16_ntt_2a70ff1a5a59bc92@cask6_cutensor@@YA?AW4Status@1@AEAVContext@1@@Z @43
  ?InitializeDynamicShaders_cutlass3x_common_cutlass3x_sm100_tensorop_s128x64x16gett_bf16_bf16_f32_bf16_bf16_tnt_7aaec0f8866cd362@cask6_cutensor@@YA?AW4Status@1@AEAVContext@1@@Z @44
  ?InitializeDynamicShaders_cutlass3x_common_cutlass3x_sm100_tensorop_s128x64x16gett_bf16_bf16_f32_bf16_bf16_ttt_c234c0858d63a788@cask6_cutensor@@YA?AW4Status@1@AEAVContext@1@@Z @45
  ?InitializeDynamicShaders_cutlass3x_common_cutlass3x_sm100_tensorop_s128x64x16gett_f16_f16_f32_f16_f16_nnt_8b4efa143f0c046e@cask6_cutensor@@YA?AW4Status@1@AEAVContext@1@@Z @46
  ?InitializeDynamicShaders_cutlass3x_common_cutlass3x_sm100_tensorop_s128x64x16gett_f16_f16_f32_f16_f16_ntt_6a5c62a19463b8f6@cask6_cutensor@@YA?AW4Status@1@AEAVContext@1@@Z @47
  ?InitializeDynamicShaders_cutlass3x_common_cutlass3x_sm100_tensorop_s128x64x16gett_f16_f16_f32_f16_f16_tnt_2ef79ffb26e4cb2e@cask6_cutensor@@YA?AW4Status@1@AEAVContext@1@@Z @48
  ?InitializeDynamicShaders_cutlass3x_common_cutlass3x_sm100_tensorop_s128x64x16gett_f16_f16_f32_f16_f16_ttt_1437ecf6364479c@cask6_cutensor@@YA?AW4Status@1@AEAVContext@1@@Z @49
  ?InitializeDynamicShaders_cutlass3x_common_cutlass3x_sm100_tensorop_s128x64x32emulated_gemm_f16_f16_f32_f32_128x64x32_1x1x1_nnn_align8_8e02eba22796dfaf@cask6_cutensor@@YA?AW4Status@1@AEAVContext@1@@Z @50
  ?InitializeDynamicShaders_cutlass3x_common_cutlass3x_sm100_tensorop_s128x64x32emulated_gemm_f16_f16_f32_f32_128x64x32_1x1x1_ntn_align8_87ca704ae11d4285@cask6_cutensor@@YA?AW4Status@1@AEAVContext@1@@Z @51
  ?InitializeDynamicShaders_cutlass3x_common_cutlass3x_sm100_tensorop_s128x64x32emulated_gemm_f16_f16_f32_f32_128x64x32_1x1x1_tnn_align8_b40fb2190fdd285f@cask6_cutensor@@YA?AW4Status@1@AEAVContext@1@@Z @52
  ?InitializeDynamicShaders_cutlass3x_common_cutlass3x_sm100_tensorop_s128x64x32emulated_gemm_f16_f16_f32_f32_128x64x32_1x1x1_ttn_align8_b7e1484f78ed987@cask6_cutensor@@YA?AW4Status@1@AEAVContext@1@@Z @53
  ?InitializeDynamicShaders_cutlass3x_common_cutlass3x_sm100_tensorop_s128x64x32f16emulated_gemm_f32_f32_f32_f32_128x64x32_1x1x1_nnn_align4_cf2f0c48101ecbfc@cask6_cutensor@@YA?AW4Status@1@AEAVContext@1@@Z @54
  ?InitializeDynamicShaders_cutlass3x_common_cutlass3x_sm100_tensorop_s128x64x32f16emulated_gemm_f32_f32_f32_f32_128x64x32_1x1x1_ntn_align4_3fd2da516b8fc8d2@cask6_cutensor@@YA?AW4Status@1@AEAVContext@1@@Z @55
  ?InitializeDynamicShaders_cutlass3x_common_cutlass3x_sm100_tensorop_s128x64x32f16emulated_gemm_f32_f32_f32_f32_128x64x32_1x1x1_tnn_align4_dba46947a3ad7c16@cask6_cutensor@@YA?AW4Status@1@AEAVContext@1@@Z @56
  ?InitializeDynamicShaders_cutlass3x_common_cutlass3x_sm100_tensorop_s128x64x32f16emulated_gemm_f32_f32_f32_f32_128x64x32_1x1x1_ttn_align4_ec968f47c91ecbf9@cask6_cutensor@@YA?AW4Status@1@AEAVContext@1@@Z @57
  ?InitializeDynamicShaders_cutlass3x_common_cutlass3x_sm100_tensorop_s128x64x8gett_f32_f32_f32_f32_f32_nnt_c1f0af6463066a5d@cask6_cutensor@@YA?AW4Status@1@AEAVContext@1@@Z @58
  ?InitializeDynamicShaders_cutlass3x_common_cutlass3x_sm100_tensorop_s128x64x8gett_f32_f32_f32_f32_f32_ntt_81e6b40a58698463@cask6_cutensor@@YA?AW4Status@1@AEAVContext@1@@Z @59
  ?InitializeDynamicShaders_cutlass3x_common_cutlass3x_sm100_tensorop_s128x64x8gett_f32_f32_f32_f32_f32_tnt_a8a89f983b418095@cask6_cutensor@@YA?AW4Status@1@AEAVContext@1@@Z @60
  ?InitializeDynamicShaders_cutlass3x_common_cutlass3x_sm100_tensorop_s128x64x8gett_f32_f32_f32_f32_f32_ttt_89d30540d51b4fcd@cask6_cutensor@@YA?AW4Status@1@AEAVContext@1@@Z @61
  ?InitializeDynamicShaders_cutlass3x_common_cutlass3x_sm100_tensorop_s256x128x32emulated_gemm_f16_f16_f32_f32_256x128x32_2x1x1_nnn_align8_1eb202c3bbf20d91@cask6_cutensor@@YA?AW4Status@1@AEAVContext@1@@Z @62
  ?InitializeDynamicShaders_cutlass3x_common_cutlass3x_sm100_tensorop_s256x128x32emulated_gemm_f16_f16_f32_f32_256x128x32_2x1x1_ntn_align8_ead76fe34d8b83bc@cask6_cutensor@@YA?AW4Status@1@AEAVContext@1@@Z @63
  ?InitializeDynamicShaders_cutlass3x_common_cutlass3x_sm100_tensorop_s256x128x32emulated_gemm_f16_f16_f32_f32_256x128x32_2x1x1_tnn_align8_e58c36e806325d0b@cask6_cutensor@@YA?AW4Status@1@AEAVContext@1@@Z @64
  ?InitializeDynamicShaders_cutlass3x_common_cutlass3x_sm100_tensorop_s256x128x32emulated_gemm_f16_f16_f32_f32_256x128x32_2x1x1_ttn_align8_79f7ad6468f16e9e@cask6_cutensor@@YA?AW4Status@1@AEAVContext@1@@Z @65
  ?InitializeDynamicShaders_cutlass3x_common_cutlass3x_sm100_tensorop_s256x128x32f16emulated_gemm_f32_f32_f32_f32_256x128x32_2x1x1_nnn_align4_26de94ba373d9b21@cask6_cutensor@@YA?AW4Status@1@AEAVContext@1@@Z @66
  ?InitializeDynamicShaders_cutlass3x_common_cutlass3x_sm100_tensorop_s256x128x32f16emulated_gemm_f32_f32_f32_f32_256x128x32_2x1x1_ntn_align4_ae68731131704b47@cask6_cutensor@@YA?AW4Status@1@AEAVContext@1@@Z @67
  ?InitializeDynamicShaders_cutlass3x_common_cutlass3x_sm100_tensorop_s256x128x32f16emulated_gemm_f32_f32_f32_f32_256x128x32_2x1x1_tnn_align4_2ba4e4bf39e4b16c@cask6_cutensor@@YA?AW4Status@1@AEAVContext@1@@Z @68
  ?InitializeDynamicShaders_cutlass3x_common_cutlass3x_sm100_tensorop_s256x128x32f16emulated_gemm_f32_f32_f32_f32_256x128x32_2x1x1_ttn_align4_cc7e2e6bc1bb255c@cask6_cutensor@@YA?AW4Status@1@AEAVContext@1@@Z @69
  ?InitializeDynamicShaders_cutlass3x_common_cutlass3x_sm100_tensorop_s256x64x32emulated_gemm_f16_f16_f32_f32_256x64x32_2x1x1_nnn_align8_d446aeadf9cdd2d3@cask6_cutensor@@YA?AW4Status@1@AEAVContext@1@@Z @70
  ?InitializeDynamicShaders_cutlass3x_common_cutlass3x_sm100_tensorop_s256x64x32emulated_gemm_f16_f16_f32_f32_256x64x32_2x1x1_ntn_align8_7018f07e276e2b7d@cask6_cutensor@@YA?AW4Status@1@AEAVContext@1@@Z @71
  ?InitializeDynamicShaders_cutlass3x_common_cutlass3x_sm100_tensorop_s256x64x32emulated_gemm_f16_f16_f32_f32_256x64x32_2x1x1_tnn_align8_8ac7e350f09b0ade@cask6_cutensor@@YA?AW4Status@1@AEAVContext@1@@Z @72
  ?InitializeDynamicShaders_cutlass3x_common_cutlass3x_sm100_tensorop_s256x64x32emulated_gemm_f16_f16_f32_f32_256x64x32_2x1x1_ttn_align8_3d985d3116f8ba8b@cask6_cutensor@@YA?AW4Status@1@AEAVContext@1@@Z @73
  ?InitializeDynamicShaders_cutlass3x_common_cutlass3x_sm100_tensorop_s256x64x32f16emulated_gemm_f32_f32_f32_f32_256x64x32_2x1x1_nnn_align4_2eb212bc952c177a@cask6_cutensor@@YA?AW4Status@1@AEAVContext@1@@Z @74
  ?InitializeDynamicShaders_cutlass3x_common_cutlass3x_sm100_tensorop_s256x64x32f16emulated_gemm_f32_f32_f32_f32_256x64x32_2x1x1_ntn_align4_d720ba07678ec23@cask6_cutensor@@YA?AW4Status@1@AEAVContext@1@@Z @75
  ?InitializeDynamicShaders_cutlass3x_common_cutlass3x_sm100_tensorop_s256x64x32f16emulated_gemm_f32_f32_f32_f32_256x64x32_2x1x1_tnn_align4_4905329e903fd52e@cask6_cutensor@@YA?AW4Status@1@AEAVContext@1@@Z @76
  ?InitializeDynamicShaders_cutlass3x_common_cutlass3x_sm100_tensorop_s256x64x32f16emulated_gemm_f32_f32_f32_f32_256x64x32_2x1x1_ttn_align4_ee6a86cf08d5ad56@cask6_cutensor@@YA?AW4Status@1@AEAVContext@1@@Z @77
  ?InitializeDynamicShaders_cutlass3x_common_cutlass3x_sm100_tensorop_s64x128x16gett_bf16_bf16_f32_bf16_bf16_nnt_fda437a749af8d44@cask6_cutensor@@YA?AW4Status@1@AEAVContext@1@@Z @78
  ?InitializeDynamicShaders_cutlass3x_common_cutlass3x_sm100_tensorop_s64x128x16gett_bf16_bf16_f32_bf16_bf16_ntt_b097bf1e6d70f572@cask6_cutensor@@YA?AW4Status@1@AEAVContext@1@@Z @79
  ?InitializeDynamicShaders_cutlass3x_common_cutlass3x_sm100_tensorop_s64x128x16gett_bf16_bf16_f32_bf16_bf16_tnt_6d165e46c8cc572e@cask6_cutensor@@YA?AW4Status@1@AEAVContext@1@@Z @80
  ?InitializeDynamicShaders_cutlass3x_common_cutlass3x_sm100_tensorop_s64x128x16gett_bf16_bf16_f32_bf16_bf16_ttt_518be90e0a3f370a@cask6_cutensor@@YA?AW4Status@1@AEAVContext@1@@Z @81
  ?InitializeDynamicShaders_cutlass3x_common_cutlass3x_sm100_tensorop_s64x128x16gett_f16_f16_f32_f16_f16_nnt_d71610c012125d04@cask6_cutensor@@YA?AW4Status@1@AEAVContext@1@@Z @82
  ?InitializeDynamicShaders_cutlass3x_common_cutlass3x_sm100_tensorop_s64x128x16gett_f16_f16_f32_f16_f16_ntt_50111d24e0fc506a@cask6_cutensor@@YA?AW4Status@1@AEAVContext@1@@Z @83
  ?InitializeDynamicShaders_cutlass3x_common_cutlass3x_sm100_tensorop_s64x128x16gett_f16_f16_f32_f16_f16_tnt_86de53fd17d1212c@cask6_cutensor@@YA?AW4Status@1@AEAVContext@1@@Z @84
  ?InitializeDynamicShaders_cutlass3x_common_cutlass3x_sm100_tensorop_s64x128x16gett_f16_f16_f32_f16_f16_ttt_8a3b852cd958517b@cask6_cutensor@@YA?AW4Status@1@AEAVContext@1@@Z @85
  ?InitializeDynamicShaders_cutlass3x_common_cutlass3x_sm100_tensorop_s64x128x8gett_f32_f32_f32_f32_f32_nnt_86ade623fdc70c5e@cask6_cutensor@@YA?AW4Status@1@AEAVContext@1@@Z @86
  ?InitializeDynamicShaders_cutlass3x_common_cutlass3x_sm100_tensorop_s64x128x8gett_f32_f32_f32_f32_f32_ntt_3b7a621c45d8fedb@cask6_cutensor@@YA?AW4Status@1@AEAVContext@1@@Z @87
  ?InitializeDynamicShaders_cutlass3x_common_cutlass3x_sm100_tensorop_s64x128x8gett_f32_f32_f32_f32_f32_tnt_64c3f66ddd386f4a@cask6_cutensor@@YA?AW4Status@1@AEAVContext@1@@Z @88
  ?InitializeDynamicShaders_cutlass3x_common_cutlass3x_sm100_tensorop_s64x128x8gett_f32_f32_f32_f32_f32_ttt_2f656998664ac8a8@cask6_cutensor@@YA?AW4Status@1@AEAVContext@1@@Z @89
  ?InitializeDynamicShaders_cutlass3x_common_cutlass3x_sm90_tensorop_bf16128x32x16gett_bf16_bf16_f32_bf16_bf16_nnt_85e5d76eb71d1dbc@cask6_cutensor@@YA?AW4Status@1@AEAVContext@1@@Z @90
  ?InitializeDynamicShaders_cutlass3x_common_cutlass3x_sm90_tensorop_bf16128x32x16gett_bf16_bf16_f32_bf16_bf16_ntt_f2eae9e82a5f85f4@cask6_cutensor@@YA?AW4Status@1@AEAVContext@1@@Z @91
  ?InitializeDynamicShaders_cutlass3x_common_cutlass3x_sm90_tensorop_bf16128x32x16gett_bf16_bf16_f32_bf16_bf16_tnt_c3a2607750c0f69d@cask6_cutensor@@YA?AW4Status@1@AEAVContext@1@@Z @92
  ?InitializeDynamicShaders_cutlass3x_common_cutlass3x_sm90_tensorop_bf16128x32x16gett_bf16_bf16_f32_bf16_bf16_ttt_fc8a7548e5950fdc@cask6_cutensor@@YA?AW4Status@1@AEAVContext@1@@Z @93
  ?InitializeDynamicShaders_cutlass3x_common_cutlass3x_sm90_tensorop_bf16128x64x16gett_bf16_bf16_f32_bf16_bf16_nnt_7692fbcb69e409a8@cask6_cutensor@@YA?AW4Status@1@AEAVContext@1@@Z @94
  ?InitializeDynamicShaders_cutlass3x_common_cutlass3x_sm90_tensorop_bf16128x64x16gett_bf16_bf16_f32_bf16_bf16_ntt_267ff39795b3e687@cask6_cutensor@@YA?AW4Status@1@AEAVContext@1@@Z @95
  ?InitializeDynamicShaders_cutlass3x_common_cutlass3x_sm90_tensorop_bf16128x64x16gett_bf16_bf16_f32_bf16_bf16_tnt_d94b647c0399de22@cask6_cutensor@@YA?AW4Status@1@AEAVContext@1@@Z @96
  ?InitializeDynamicShaders_cutlass3x_common_cutlass3x_sm90_tensorop_bf16128x64x16gett_bf16_bf16_f32_bf16_bf16_ttt_63195d15572e179f@cask6_cutensor@@YA?AW4Status@1@AEAVContext@1@@Z @97
  ?InitializeDynamicShaders_cutlass3x_common_cutlass3x_sm90_tensorop_bf1664x64x16gett_bf16_bf16_f32_bf16_bf16_nnt_d80e3dd9fa4fc14c@cask6_cutensor@@YA?AW4Status@1@AEAVContext@1@@Z @98
  ?InitializeDynamicShaders_cutlass3x_common_cutlass3x_sm90_tensorop_bf1664x64x16gett_bf16_bf16_f32_bf16_bf16_ntt_68b87d3220b8584@cask6_cutensor@@YA?AW4Status@1@AEAVContext@1@@Z @99
  ?InitializeDynamicShaders_cutlass3x_common_cutlass3x_sm90_tensorop_bf1664x64x16gett_bf16_bf16_f32_bf16_bf16_tnt_f4ae92800f9fe12@cask6_cutensor@@YA?AW4Status@1@AEAVContext@1@@Z @100
  ?InitializeDynamicShaders_cutlass3x_common_cutlass3x_sm90_tensorop_bf1664x64x16gett_bf16_bf16_f32_bf16_bf16_ttt_55fa3a9525389f5e@cask6_cutensor@@YA?AW4Status@1@AEAVContext@1@@Z @101
  ?InitializeDynamicShaders_cutlass3x_common_cutlass3x_sm90_tensorop_c128x32x16emulated_pretransformed_gemm_f16_f16_cf32_cf32_128x32x64_1x1x1_nnn_align8_3161e12a7d8e6bfd@cask6_cutensor@@YA?AW4Status@1@AEAVContext@1@@Z @102
  ?InitializeDynamicShaders_cutlass3x_common_cutlass3x_sm90_tensorop_c128x32x16emulated_pretransformed_gemm_f16_f16_cf32_cf32_128x32x64_1x1x1_ntn_align8_674fd1be6f0b9817@cask6_cutensor@@YA?AW4Status@1@AEAVContext@1@@Z @103
  ?InitializeDynamicShaders_cutlass3x_common_cutlass3x_sm90_tensorop_c128x32x16emulated_pretransformed_gemm_f16_f16_cf32_cf32_128x32x64_1x1x1_tnn_align8_62aef0400b491430@cask6_cutensor@@YA?AW4Status@1@AEAVContext@1@@Z @104
  ?InitializeDynamicShaders_cutlass3x_common_cutlass3x_sm90_tensorop_c128x32x16emulated_pretransformed_gemm_f16_f16_cf32_cf32_128x32x64_1x1x1_ttn_align8_cb1c0fbb5aa32d08@cask6_cutensor@@YA?AW4Status@1@AEAVContext@1@@Z @105
  ?InitializeDynamicShaders_cutlass3x_common_cutlass3x_sm90_tensorop_c128x32x16f16emulated_pretransformed_gemm_cf32_f16_cf32_cf32_128x32x64_1x1x1_nnn_align8_3bf1a578f3d98bef@cask6_cutensor@@YA?AW4Status@1@AEAVContext@1@@Z @106
  ?InitializeDynamicShaders_cutlass3x_common_cutlass3x_sm90_tensorop_c128x32x16f16emulated_pretransformed_gemm_cf32_f16_cf32_cf32_128x32x64_1x1x1_ntn_align8_d1020b29389b4058@cask6_cutensor@@YA?AW4Status@1@AEAVContext@1@@Z @107
  ?InitializeDynamicShaders_cutlass3x_common_cutlass3x_sm90_tensorop_c128x32x16f16emulated_pretransformed_gemm_cf32_f16_cf32_cf32_128x32x64_1x1x1_tnn_align8_96d027e5a0174a77@cask6_cutensor@@YA?AW4Status@1@AEAVContext@1@@Z @108
  ?InitializeDynamicShaders_cutlass3x_common_cutlass3x_sm90_tensorop_c128x32x16f16emulated_pretransformed_gemm_cf32_f16_cf32_cf32_128x32x64_1x1x1_ttn_align8_cbe9e5f17831dd4c@cask6_cutensor@@YA?AW4Status@1@AEAVContext@1@@Z @109
  ?InitializeDynamicShaders_cutlass3x_common_cutlass3x_sm90_tensorop_c128x64x16emulated_pretransformed_gemm_f16_f16_cf32_cf32_128x64x64_1x1x1_nnn_align8_4d30a502edc20a49@cask6_cutensor@@YA?AW4Status@1@AEAVContext@1@@Z @110
  ?InitializeDynamicShaders_cutlass3x_common_cutlass3x_sm90_tensorop_c128x64x16emulated_pretransformed_gemm_f16_f16_cf32_cf32_128x64x64_1x1x1_ntn_align8_a872077dbd0c1400@cask6_cutensor@@YA?AW4Status@1@AEAVContext@1@@Z @111
  ?InitializeDynamicShaders_cutlass3x_common_cutlass3x_sm90_tensorop_c128x64x16emulated_pretransformed_gemm_f16_f16_cf32_cf32_128x64x64_1x1x1_tnn_align8_a00921af2baa8b92@cask6_cutensor@@YA?AW4Status@1@AEAVContext@1@@Z @112
  ?InitializeDynamicShaders_cutlass3x_common_cutlass3x_sm90_tensorop_c128x64x16emulated_pretransformed_gemm_f16_f16_cf32_cf32_128x64x64_1x1x1_ttn_align8_9ccaeb83bc8e78c9@cask6_cutensor@@YA?AW4Status@1@AEAVContext@1@@Z @113
  ?InitializeDynamicShaders_cutlass3x_common_cutlass3x_sm90_tensorop_c128x64x16f16emulated_pretransformed_gemm_cf32_f16_cf32_cf32_128x64x64_1x1x1_nnn_align8_398e5abf46912512@cask6_cutensor@@YA?AW4Status@1@AEAVContext@1@@Z @114
  ?InitializeDynamicShaders_cutlass3x_common_cutlass3x_sm90_tensorop_c128x64x16f16emulated_pretransformed_gemm_cf32_f16_cf32_cf32_128x64x64_1x1x1_ntn_align8_dd0eff0818e445c2@cask6_cutensor@@YA?AW4Status@1@AEAVContext@1@@Z @115
  ?InitializeDynamicShaders_cutlass3x_common_cutlass3x_sm90_tensorop_c128x64x16f16emulated_pretransformed_gemm_cf32_f16_cf32_cf32_128x64x64_1x1x1_tnn_align8_26bedc38e287d69b@cask6_cutensor@@YA?AW4Status@1@AEAVContext@1@@Z @116
  ?InitializeDynamicShaders_cutlass3x_common_cutlass3x_sm90_tensorop_c128x64x16f16emulated_pretransformed_gemm_cf32_f16_cf32_cf32_128x64x64_1x1x1_ttn_align8_b57ad2fb5eda1de3@cask6_cutensor@@YA?AW4Status@1@AEAVContext@1@@Z @117
  ?InitializeDynamicShaders_cutlass3x_common_cutlass3x_sm90_tensorop_c64x32x16emulated_pretransformed_gemm_f16_f16_cf32_cf32_64x32x64_1x1x1_nnn_align8_bffbe07c65fd102b@cask6_cutensor@@YA?AW4Status@1@AEAVContext@1@@Z @118
  ?InitializeDynamicShaders_cutlass3x_common_cutlass3x_sm90_tensorop_c64x32x16emulated_pretransformed_gemm_f16_f16_cf32_cf32_64x32x64_1x1x1_ntn_align8_4fadaebf03388875@cask6_cutensor@@YA?AW4Status@1@AEAVContext@1@@Z @119
  ?InitializeDynamicShaders_cutlass3x_common_cutlass3x_sm90_tensorop_c64x32x16emulated_pretransformed_gemm_f16_f16_cf32_cf32_64x32x64_1x1x1_tnn_align8_865dbe163353039b@cask6_cutensor@@YA?AW4Status@1@AEAVContext@1@@Z @120
  ?InitializeDynamicShaders_cutlass3x_common_cutlass3x_sm90_tensorop_c64x32x16emulated_pretransformed_gemm_f16_f16_cf32_cf32_64x32x64_1x1x1_ttn_align8_7cea7012ceb6a12f@cask6_cutensor@@YA?AW4Status@1@AEAVContext@1@@Z @121
  ?InitializeDynamicShaders_cutlass3x_common_cutlass3x_sm90_tensorop_c64x32x16f16emulated_pretransformed_gemm_cf32_f16_cf32_cf32_64x32x64_1x1x1_nnn_align8_569f072de93aa4a5@cask6_cutensor@@YA?AW4Status@1@AEAVContext@1@@Z @122
  ?InitializeDynamicShaders_cutlass3x_common_cutlass3x_sm90_tensorop_c64x32x16f16emulated_pretransformed_gemm_cf32_f16_cf32_cf32_64x32x64_1x1x1_ntn_align8_237ec7c091f78fed@cask6_cutensor@@YA?AW4Status@1@AEAVContext@1@@Z @123
  ?InitializeDynamicShaders_cutlass3x_common_cutlass3x_sm90_tensorop_c64x32x16f16emulated_pretransformed_gemm_cf32_f16_cf32_cf32_64x32x64_1x1x1_tnn_align8_df5cdb71358f4764@cask6_cutensor@@YA?AW4Status@1@AEAVContext@1@@Z @124
  ?InitializeDynamicShaders_cutlass3x_common_cutlass3x_sm90_tensorop_c64x32x16f16emulated_pretransformed_gemm_cf32_f16_cf32_cf32_64x32x64_1x1x1_ttn_align8_8700df8e1c24faf1@cask6_cutensor@@YA?AW4Status@1@AEAVContext@1@@Z @125
  ?InitializeDynamicShaders_cutlass3x_common_cutlass3x_sm90_tensorop_c64x64x16emulated_pretransformed_gemm_f16_f16_cf32_cf32_64x64x64_1x1x1_nnn_align8_5fdca45f97a82fd2@cask6_cutensor@@YA?AW4Status@1@AEAVContext@1@@Z @126
  ?InitializeDynamicShaders_cutlass3x_common_cutlass3x_sm90_tensorop_c64x64x16emulated_pretransformed_gemm_f16_f16_cf32_cf32_64x64x64_1x1x1_ntn_align8_277ba3c0fc9008a8@cask6_cutensor@@YA?AW4Status@1@AEAVContext@1@@Z @127
  ?InitializeDynamicShaders_cutlass3x_common_cutlass3x_sm90_tensorop_c64x64x16emulated_pretransformed_gemm_f16_f16_cf32_cf32_64x64x64_1x1x1_tnn_align8_b319c0c59177846d@cask6_cutensor@@YA?AW4Status@1@AEAVContext@1@@Z @128
  ?InitializeDynamicShaders_cutlass3x_common_cutlass3x_sm90_tensorop_c64x64x16emulated_pretransformed_gemm_f16_f16_cf32_cf32_64x64x64_1x1x1_ttn_align8_3497ab858eeac61@cask6_cutensor@@YA?AW4Status@1@AEAVContext@1@@Z @129
  ?InitializeDynamicShaders_cutlass3x_common_cutlass3x_sm90_tensorop_c64x64x16f16emulated_pretransformed_gemm_cf32_f16_cf32_cf32_64x64x64_1x1x1_nnn_align8_661f60c7d2a62a25@cask6_cutensor@@YA?AW4Status@1@AEAVContext@1@@Z @130
  ?InitializeDynamicShaders_cutlass3x_common_cutlass3x_sm90_tensorop_c64x64x16f16emulated_pretransformed_gemm_cf32_f16_cf32_cf32_64x64x64_1x1x1_ntn_align8_5a76713437867231@cask6_cutensor@@YA?AW4Status@1@AEAVContext@1@@Z @131
  ?InitializeDynamicShaders_cutlass3x_common_cutlass3x_sm90_tensorop_c64x64x16f16emulated_pretransformed_gemm_cf32_f16_cf32_cf32_64x64x64_1x1x1_tnn_align8_f6c095724fe069fd@cask6_cutensor@@YA?AW4Status@1@AEAVContext@1@@Z @132
  ?InitializeDynamicShaders_cutlass3x_common_cutlass3x_sm90_tensorop_c64x64x16f16emulated_pretransformed_gemm_cf32_f16_cf32_cf32_64x64x64_1x1x1_ttn_align8_9342a6364bd65a00@cask6_cutensor@@YA?AW4Status@1@AEAVContext@1@@Z @133
  ?InitializeDynamicShaders_cutlass3x_common_cutlass3x_sm90_tensorop_h128x32x16gett_f16_f16_f32_f16_f16_nnt_cadafa28d61bf3ef@cask6_cutensor@@YA?AW4Status@1@AEAVContext@1@@Z @134
  ?InitializeDynamicShaders_cutlass3x_common_cutlass3x_sm90_tensorop_h128x32x16gett_f16_f16_f32_f16_f16_ntt_4aee979e752e5ded@cask6_cutensor@@YA?AW4Status@1@AEAVContext@1@@Z @135
  ?InitializeDynamicShaders_cutlass3x_common_cutlass3x_sm90_tensorop_h128x32x16gett_f16_f16_f32_f16_f16_tnt_b731881c6f380e55@cask6_cutensor@@YA?AW4Status@1@AEAVContext@1@@Z @136
  ?InitializeDynamicShaders_cutlass3x_common_cutlass3x_sm90_tensorop_h128x32x16gett_f16_f16_f32_f16_f16_ttt_e1a66530987501a6@cask6_cutensor@@YA?AW4Status@1@AEAVContext@1@@Z @137
  ?InitializeDynamicShaders_cutlass3x_common_cutlass3x_sm90_tensorop_h128x64x16gett_f16_f16_f32_f16_f16_nnt_221904e513a8d401@cask6_cutensor@@YA?AW4Status@1@AEAVContext@1@@Z @138
  ?InitializeDynamicShaders_cutlass3x_common_cutlass3x_sm90_tensorop_h128x64x16gett_f16_f16_f32_f16_f16_ntt_2d33082038bda45e@cask6_cutensor@@YA?AW4Status@1@AEAVContext@1@@Z @139
  ?InitializeDynamicShaders_cutlass3x_common_cutlass3x_sm90_tensorop_h128x64x16gett_f16_f16_f32_f16_f16_tnt_979738aa9e400546@cask6_cutensor@@YA?AW4Status@1@AEAVContext@1@@Z @140
  ?InitializeDynamicShaders_cutlass3x_common_cutlass3x_sm90_tensorop_h128x64x16gett_f16_f16_f32_f16_f16_ttt_3591657f619666e0@cask6_cutensor@@YA?AW4Status@1@AEAVContext@1@@Z @141
  ?InitializeDynamicShaders_cutlass3x_common_cutlass3x_sm90_tensorop_h64x64x16gett_f16_f16_f32_f16_f16_nnt_96ad4d145fa7b5e6@cask6_cutensor@@YA?AW4Status@1@AEAVContext@1@@Z @142
  ?InitializeDynamicShaders_cutlass3x_common_cutlass3x_sm90_tensorop_h64x64x16gett_f16_f16_f32_f16_f16_ntt_c180bfdbd20a588c@cask6_cutensor@@YA?AW4Status@1@AEAVContext@1@@Z @143
  ?InitializeDynamicShaders_cutlass3x_common_cutlass3x_sm90_tensorop_h64x64x16gett_f16_f16_f32_f16_f16_tnt_bcb0e5ee8cdeb997@cask6_cutensor@@YA?AW4Status@1@AEAVContext@1@@Z @144
  ?InitializeDynamicShaders_cutlass3x_common_cutlass3x_sm90_tensorop_h64x64x16gett_f16_f16_f32_f16_f16_ttt_a6c2ad3aaac1f2c4@cask6_cutensor@@YA?AW4Status@1@AEAVContext@1@@Z @145
  ?InitializeDynamicShaders_cutlass3x_common_cutlass3x_sm90_tensorop_s128x32x16emulated_pretransformed_gemm_f16_f16_f32_f32_128x32x64_1x1x1_nnn_align8_a0bc81e92591434d@cask6_cutensor@@YA?AW4Status@1@AEAVContext@1@@Z @146
  ?InitializeDynamicShaders_cutlass3x_common_cutlass3x_sm90_tensorop_s128x32x16emulated_pretransformed_gemm_f16_f16_f32_f32_128x32x64_1x1x1_ntn_align8_e3ad1d4ff5efb310@cask6_cutensor@@YA?AW4Status@1@AEAVContext@1@@Z @147
  ?InitializeDynamicShaders_cutlass3x_common_cutlass3x_sm90_tensorop_s128x32x16emulated_pretransformed_gemm_f16_f16_f32_f32_128x32x64_1x1x1_tnn_align8_a3633d058b2a37d3@cask6_cutensor@@YA?AW4Status@1@AEAVContext@1@@Z @148
  ?InitializeDynamicShaders_cutlass3x_common_cutlass3x_sm90_tensorop_s128x32x16emulated_pretransformed_gemm_f16_f16_f32_f32_128x32x64_1x1x1_ttn_align8_862a58cb905106ff@cask6_cutensor@@YA?AW4Status@1@AEAVContext@1@@Z @149
  ?InitializeDynamicShaders_cutlass3x_common_cutlass3x_sm90_tensorop_s128x32x16f16emulated_pretransformed_gemm_f32_f16_f32_f32_128x32x64_1x1x1_nnn_align8_51141b08bed07caa@cask6_cutensor@@YA?AW4Status@1@AEAVContext@1@@Z @150
  ?InitializeDynamicShaders_cutlass3x_common_cutlass3x_sm90_tensorop_s128x32x16f16emulated_pretransformed_gemm_f32_f16_f32_f32_128x32x64_1x1x1_ntn_align8_a43aefb004730f0e@cask6_cutensor@@YA?AW4Status@1@AEAVContext@1@@Z @151
  ?InitializeDynamicShaders_cutlass3x_common_cutlass3x_sm90_tensorop_s128x32x16f16emulated_pretransformed_gemm_f32_f16_f32_f32_128x32x64_1x1x1_tnn_align8_c49a5a7af5d8d44a@cask6_cutensor@@YA?AW4Status@1@AEAVContext@1@@Z @152
  ?InitializeDynamicShaders_cutlass3x_common_cutlass3x_sm90_tensorop_s128x32x16f16emulated_pretransformed_gemm_f32_f16_f32_f32_128x32x64_1x1x1_ttn_align8_b6c70b30def12a29@cask6_cutensor@@YA?AW4Status@1@AEAVContext@1@@Z @153
  ?InitializeDynamicShaders_cutlass3x_common_cutlass3x_sm90_tensorop_s128x32x8tf32gett_f32_f32_f32_f32_f32_tnt_cfd634235dbb623e@cask6_cutensor@@YA?AW4Status@1@AEAVContext@1@@Z @154
  ?InitializeDynamicShaders_cutlass3x_common_cutlass3x_sm90_tensorop_s128x64x16emulated_pretransformed_gemm_f16_f16_f32_f32_128x64x64_1x1x1_nnn_align8_8aba68adf0c3900@cask6_cutensor@@YA?AW4Status@1@AEAVContext@1@@Z @155
  ?InitializeDynamicShaders_cutlass3x_common_cutlass3x_sm90_tensorop_s128x64x16emulated_pretransformed_gemm_f16_f16_f32_f32_128x64x64_1x1x1_ntn_align8_a70e2e7ffbc984c3@cask6_cutensor@@YA?AW4Status@1@AEAVContext@1@@Z @156
  ?InitializeDynamicShaders_cutlass3x_common_cutlass3x_sm90_tensorop_s128x64x16emulated_pretransformed_gemm_f16_f16_f32_f32_128x64x64_1x1x1_tnn_align8_68a27cfb75973132@cask6_cutensor@@YA?AW4Status@1@AEAVContext@1@@Z @157
  ?InitializeDynamicShaders_cutlass3x_common_cutlass3x_sm90_tensorop_s128x64x16emulated_pretransformed_gemm_f16_f16_f32_f32_128x64x64_1x1x1_ttn_align8_4020bb313a35c938@cask6_cutensor@@YA?AW4Status@1@AEAVContext@1@@Z @158
  ?InitializeDynamicShaders_cutlass3x_common_cutlass3x_sm90_tensorop_s128x64x16f16emulated_pretransformed_gemm_f32_f16_f32_f32_128x64x64_1x1x1_nnn_align8_a12ea7cc1060a6c4@cask6_cutensor@@YA?AW4Status@1@AEAVContext@1@@Z @159
  ?InitializeDynamicShaders_cutlass3x_common_cutlass3x_sm90_tensorop_s128x64x16f16emulated_pretransformed_gemm_f32_f16_f32_f32_128x64x64_1x1x1_ntn_align8_f47ebc1461fbddd7@cask6_cutensor@@YA?AW4Status@1@AEAVContext@1@@Z @160
  ?InitializeDynamicShaders_cutlass3x_common_cutlass3x_sm90_tensorop_s128x64x16f16emulated_pretransformed_gemm_f32_f16_f32_f32_128x64x64_1x1x1_tnn_align8_294a0ef712319666@cask6_cutensor@@YA?AW4Status@1@AEAVContext@1@@Z @161
  ?InitializeDynamicShaders_cutlass3x_common_cutlass3x_sm90_tensorop_s128x64x16f16emulated_pretransformed_gemm_f32_f16_f32_f32_128x64x64_1x1x1_ttn_align8_db9e767ebb5be538@cask6_cutensor@@YA?AW4Status@1@AEAVContext@1@@Z @162
  ?InitializeDynamicShaders_cutlass3x_common_cutlass3x_sm90_tensorop_s128x64x8tf32gett_f32_f32_f32_f32_f32_tnt_610541d3eb08126a@cask6_cutensor@@YA?AW4Status@1@AEAVContext@1@@Z @163
  ?InitializeDynamicShaders_cutlass3x_common_cutlass3x_sm90_tensorop_s64x32x16emulated_pretransformed_gemm_f16_f16_f32_f32_64x32x64_1x1x1_nnn_align8_d9459a2794801268@cask6_cutensor@@YA?AW4Status@1@AEAVContext@1@@Z @164
  ?InitializeDynamicShaders_cutlass3x_common_cutlass3x_sm90_tensorop_s64x32x16emulated_pretransformed_gemm_f16_f16_f32_f32_64x32x64_1x1x1_ntn_align8_f39b67fd3b9727bf@cask6_cutensor@@YA?AW4Status@1@AEAVContext@1@@Z @165
  ?InitializeDynamicShaders_cutlass3x_common_cutlass3x_sm90_tensorop_s64x32x16emulated_pretransformed_gemm_f16_f16_f32_f32_64x32x64_1x1x1_tnn_align8_fb668bfdd561b311@cask6_cutensor@@YA?AW4Status@1@AEAVContext@1@@Z @166
  ?InitializeDynamicShaders_cutlass3x_common_cutlass3x_sm90_tensorop_s64x32x16emulated_pretransformed_gemm_f16_f16_f32_f32_64x32x64_1x1x1_ttn_align8_c0555f1db4a65e87@cask6_cutensor@@YA?AW4Status@1@AEAVContext@1@@Z @167
  ?InitializeDynamicShaders_cutlass3x_common_cutlass3x_sm90_tensorop_s64x32x16f16emulated_pretransformed_gemm_f32_f16_f32_f32_64x32x64_1x1x1_nnn_align8_d6cacf6c6eef619@cask6_cutensor@@YA?AW4Status@1@AEAVContext@1@@Z @168
  ?InitializeDynamicShaders_cutlass3x_common_cutlass3x_sm90_tensorop_s64x32x16f16emulated_pretransformed_gemm_f32_f16_f32_f32_64x32x64_1x1x1_ntn_align8_670be5f48f4c0253@cask6_cutensor@@YA?AW4Status@1@AEAVContext@1@@Z @169
  ?InitializeDynamicShaders_cutlass3x_common_cutlass3x_sm90_tensorop_s64x32x16f16emulated_pretransformed_gemm_f32_f16_f32_f32_64x32x64_1x1x1_tnn_align8_735bdb9a8fa9f544@cask6_cutensor@@YA?AW4Status@1@AEAVContext@1@@Z @170
  ?InitializeDynamicShaders_cutlass3x_common_cutlass3x_sm90_tensorop_s64x32x16f16emulated_pretransformed_gemm_f32_f16_f32_f32_64x32x64_1x1x1_ttn_align8_e4cc7db6530e595e@cask6_cutensor@@YA?AW4Status@1@AEAVContext@1@@Z @171
  ?InitializeDynamicShaders_cutlass3x_common_cutlass3x_sm90_tensorop_s64x64x16emulated_pretransformed_gemm_f16_f16_f32_f32_64x64x64_1x1x1_nnn_align8_ecf96871ffec3364@cask6_cutensor@@YA?AW4Status@1@AEAVContext@1@@Z @172
  ?InitializeDynamicShaders_cutlass3x_common_cutlass3x_sm90_tensorop_s64x64x16emulated_pretransformed_gemm_f16_f16_f32_f32_64x64x64_1x1x1_ntn_align8_8d30f85ffdfac227@cask6_cutensor@@YA?AW4Status@1@AEAVContext@1@@Z @173
  ?InitializeDynamicShaders_cutlass3x_common_cutlass3x_sm90_tensorop_s64x64x16emulated_pretransformed_gemm_f16_f16_f32_f32_64x64x64_1x1x1_tnn_align8_3df03659d498d8cc@cask6_cutensor@@YA?AW4Status@1@AEAVContext@1@@Z @174
  ?InitializeDynamicShaders_cutlass3x_common_cutlass3x_sm90_tensorop_s64x64x16emulated_pretransformed_gemm_f16_f16_f32_f32_64x64x64_1x1x1_ttn_align8_c6e3826599a01158@cask6_cutensor@@YA?AW4Status@1@AEAVContext@1@@Z @175
  ?InitializeDynamicShaders_cutlass3x_common_cutlass3x_sm90_tensorop_s64x64x16f16emulated_pretransformed_gemm_f32_f16_f32_f32_64x64x64_1x1x1_nnn_align8_dc88534e1e68b800@cask6_cutensor@@YA?AW4Status@1@AEAVContext@1@@Z @176
  ?InitializeDynamicShaders_cutlass3x_common_cutlass3x_sm90_tensorop_s64x64x16f16emulated_pretransformed_gemm_f32_f16_f32_f32_64x64x64_1x1x1_ntn_align8_9fb9bd76358d66df@cask6_cutensor@@YA?AW4Status@1@AEAVContext@1@@Z @177
  ?InitializeDynamicShaders_cutlass3x_common_cutlass3x_sm90_tensorop_s64x64x16f16emulated_pretransformed_gemm_f32_f16_f32_f32_64x64x64_1x1x1_tnn_align8_c4417ceba34810fa@cask6_cutensor@@YA?AW4Status@1@AEAVContext@1@@Z @178
  ?InitializeDynamicShaders_cutlass3x_common_cutlass3x_sm90_tensorop_s64x64x16f16emulated_pretransformed_gemm_f32_f16_f32_f32_64x64x64_1x1x1_ttn_align8_37a990bc898da035@cask6_cutensor@@YA?AW4Status@1@AEAVContext@1@@Z @179
  ?InitializeDynamicShaders_cutlass3x_common_cutlass3x_sm90_tensorop_s64x64x8tf32gett_f32_f32_f32_f32_f32_tnt_50e0be0f4d76ef7b@cask6_cutensor@@YA?AW4Status@1@AEAVContext@1@@Z @180
  ?InitializeDynamicShaders_cutlass3x_common_cutlass_gett_sm75_simt_nnt_max2147483647_790fa3aa8defb41c@cask6_cutensor@@YA?AW4Status@1@AEAVContext@1@@Z @181
  ?InitializeDynamicShaders_cutlass3x_common_cutlass_gett_sm75_simt_ntt_max2147483647_43fdb396e92e6e3b@cask6_cutensor@@YA?AW4Status@1@AEAVContext@1@@Z @182
  ?InitializeDynamicShaders_cutlass3x_common_cutlass_gett_sm75_simt_tnt_max2147483647_bf092c4068885bea@cask6_cutensor@@YA?AW4Status@1@AEAVContext@1@@Z @183
  ?InitializeDynamicShaders_cutlass3x_common_cutlass_gett_sm75_simt_ttt_max2147483647_7ef3a5897821e6a7@cask6_cutensor@@YA?AW4Status@1@AEAVContext@1@@Z @184
  ?InitializeDynamicShaders_cutlass3x_common_cutlass_gett_sm75_tensorop_nnt_max2147483647_1f09abd9da3c5360@cask6_cutensor@@YA?AW4Status@1@AEAVContext@1@@Z @185
  ?InitializeDynamicShaders_cutlass3x_common_cutlass_gett_sm75_tensorop_ntt_max2147483647_c709c80539251626@cask6_cutensor@@YA?AW4Status@1@AEAVContext@1@@Z @186
  ?InitializeDynamicShaders_cutlass3x_common_cutlass_gett_sm75_tensorop_tnt_max2147483647_6c2ff4949f63e506@cask6_cutensor@@YA?AW4Status@1@AEAVContext@1@@Z @187
  ?InitializeDynamicShaders_cutlass3x_common_cutlass_gett_sm75_tensorop_ttt_max2147483647_29b8fab8a6ba87c0@cask6_cutensor@@YA?AW4Status@1@AEAVContext@1@@Z @188
  ?InitializeDynamicShaders_cutlass3x_common_cutlass_gett_sm80_simt_nnt_max121_6b29dd0ea242ff02@cask6_cutensor@@YA?AW4Status@1@AEAVContext@1@@Z @189
  ?InitializeDynamicShaders_cutlass3x_common_cutlass_gett_sm80_simt_ntt_max121_29c9377294832406@cask6_cutensor@@YA?AW4Status@1@AEAVContext@1@@Z @190
  ?InitializeDynamicShaders_cutlass3x_common_cutlass_gett_sm80_simt_tnt_max121_5dd2908546978fba@cask6_cutensor@@YA?AW4Status@1@AEAVContext@1@@Z @191
  ?InitializeDynamicShaders_cutlass3x_common_cutlass_gett_sm80_simt_ttt_max121_12c1c441605d364a@cask6_cutensor@@YA?AW4Status@1@AEAVContext@1@@Z @192
  ?InitializeDynamicShaders_cutlass3x_common_cutlass_gett_sm80_tensorop_nnt_max121_208c3d7c32d679a0@cask6_cutensor@@YA?AW4Status@1@AEAVContext@1@@Z @193
  ?InitializeDynamicShaders_cutlass3x_common_cutlass_gett_sm80_tensorop_ntt_max121_f5f4c5f455af31cb@cask6_cutensor@@YA?AW4Status@1@AEAVContext@1@@Z @194
  ?InitializeDynamicShaders_cutlass3x_common_cutlass_gett_sm80_tensorop_tnt_max121_ca3bfdcfce071172@cask6_cutensor@@YA?AW4Status@1@AEAVContext@1@@Z @195
  ?InitializeDynamicShaders_cutlass3x_common_cutlass_gett_sm80_tensorop_ttt_max121_6392d1f643740e0c@cask6_cutensor@@YA?AW4Status@1@AEAVContext@1@@Z @196
  ?InitializeDynamicShaders_cutlass3x_common_cutlass_gett_sm90_simt_nnt_max99_971e4750d1ccea7d@cask6_cutensor@@YA?AW4Status@1@AEAVContext@1@@Z @197
  ?InitializeDynamicShaders_cutlass3x_common_cutlass_gett_sm90_simt_ntt_max99_8aedff991560bed3@cask6_cutensor@@YA?AW4Status@1@AEAVContext@1@@Z @198
  ?InitializeDynamicShaders_cutlass3x_common_cutlass_gett_sm90_simt_tnt_max99_c2870ea0e2e40dda@cask6_cutensor@@YA?AW4Status@1@AEAVContext@1@@Z @199
  ?InitializeDynamicShaders_cutlass3x_common_cutlass_gett_sm90_simt_ttt_max99_1d8cfce464b497a4@cask6_cutensor@@YA?AW4Status@1@AEAVContext@1@@Z @200
  ?InitializeDynamicShaders_cutlass3x_common_cutlass_gett_sm90_tensorop_nnt_max99_20f3f3e85fdf6f23@cask6_cutensor@@YA?AW4Status@1@AEAVContext@1@@Z @201
  ?InitializeDynamicShaders_cutlass3x_common_cutlass_gett_sm90_tensorop_ntt_max99_eb2ca3f2c2605cb1@cask6_cutensor@@YA?AW4Status@1@AEAVContext@1@@Z @202
  ?InitializeDynamicShaders_cutlass3x_common_cutlass_gett_sm90_tensorop_tnt_max99_58adf556b42c4dbe@cask6_cutensor@@YA?AW4Status@1@AEAVContext@1@@Z @203
  ?InitializeDynamicShaders_cutlass3x_common_cutlass_gett_sm90_tensorop_ttt_max99_9cc8a896973b407a@cask6_cutensor@@YA?AW4Status@1@AEAVContext@1@@Z @204
  ?InitializeProvider_group_0@cask6_cutensor@@YA?AW4Status@1@AEAVContext@1@@Z @205
  ?InitializeProvider_group_1@cask6_cutensor@@YA?AW4Status@1@AEAVContext@1@@Z @206
  ?InitializeProvider_group_2@cask6_cutensor@@YA?AW4Status@1@AEAVContext@1@@Z @207
  ?InitializeProvider_group_3@cask6_cutensor@@YA?AW4Status@1@AEAVContext@1@@Z @208
  ?InitializeResources_group_0@cask6_cutensor@@YA?AW4Status@1@AEAVContext@1@@Z @209
  ?InitializeResources_group_1@cask6_cutensor@@YA?AW4Status@1@AEAVContext@1@@Z @210
  ?InitializeResources_group_2@cask6_cutensor@@YA?AW4Status@1@AEAVContext@1@@Z @211
  ?InitializeResources_group_3@cask6_cutensor@@YA?AW4Status@1@AEAVContext@1@@Z @212
  CUTENSOR_COMPUTE_DESC_16BF @213
  CUTENSOR_COMPUTE_DESC_16F @214
  CUTENSOR_COMPUTE_DESC_32F @215
  CUTENSOR_COMPUTE_DESC_3XTF32 @216
  CUTENSOR_COMPUTE_DESC_4X16F @217
  CUTENSOR_COMPUTE_DESC_64F @218
  CUTENSOR_COMPUTE_DESC_8XINT8 @219
  CUTENSOR_COMPUTE_DESC_9X16BF @220
  CUTENSOR_COMPUTE_DESC_TF32 @221
  NvOptimusEnablementCuda @222
  cutensorBlockSparseContract @223
  cutensorComputeDescriptorGetAttribute @224
  cutensorComputeDescriptorSetAttribute @225
  cutensorContract @226
  cutensorContractTrinary @227
  cutensorCreate @228
  cutensorCreateBlockSparseContraction @229
  cutensorCreateBlockSparseTensorDescriptor @230
  cutensorCreateComputeDescriptor @231
  cutensorCreateContraction @232
  cutensorCreateContractionTrinary @233
  cutensorCreateElementwiseBinary @234
  cutensorCreateElementwiseTrinary @235
  cutensorCreatePermutation @236
  cutensorCreatePlan @237
  cutensorCreatePlanPreference @238
  cutensorCreateReduction @239
  cutensorCreateTensorDescriptor @240
  cutensorDestroy @241
  cutensorDestroyBlockSparseTensorDescriptor @242
  cutensorDestroyComputeDescriptor @243
  cutensorDestroyOperationDescriptor @244
  cutensorDestroyPlan @245
  cutensorDestroyPlanPreference @246
  cutensorDestroyTensorDescriptor @247
  cutensorElementwiseBinaryExecute @248
  cutensorElementwiseTrinaryExecute @249
  cutensorEstimateWorkspaceSize @250
  cutensorGetCudartVersion @251
  cutensorGetErrorString @252
  cutensorGetVersion @253
  cutensorHandleReadPlanCacheFromFile @254
  cutensorHandleResizePlanCache @255
  cutensorHandleWritePlanCacheToFile @256
  cutensorLoggerForceDisable @257
  cutensorLoggerOpenFile @258
  cutensorLoggerSetCallback @259
  cutensorLoggerSetFile @260
  cutensorLoggerSetLevel @261
  cutensorLoggerSetMask @262
  cutensorOperationDescriptorGetAttribute @263
  cutensorOperationDescriptorSetAttribute @264
  cutensorOperationEstimateRuntime @265
  cutensorOperationNumAlgos @266
  cutensorPermute @267
  cutensorPlanGetAttribute @268
  cutensorPlanPreferenceGetAttribute @269
  cutensorPlanPreferenceSetAttribute @270
  cutensorReadKernelCacheFromFile @271
  cutensorReduce @272
  cutensorTensorDescriptorSetAttribute @273
  cutensorWriteKernelCacheToFile @274
